target datalayout = "e-m:e-p270:32:32-p271:32:32-p272:64:64-i64:64-i128:128-f80:128-n8:16:32:64-S128"
target triple = "x86_64-pc-linux-gnu"

%"class.std::__cxx11::basic_string" = type { %"struct.std::__cxx11::basic_string<char>::_Alloc_hider", i64, %union.anon }
%"struct.std::__cxx11::basic_string<char>::_Alloc_hider" = type { ptr }
%union.anon = type { i64, [8 x i8] }
%"class.std::basic_ostream.base" = type { ptr }
%"class.std::__cxx11::basic_stringbuf" = type { %"class.std::basic_streambuf", i32, %"class.std::__cxx11::basic_string" }
%"class.std::basic_streambuf" = type { ptr, ptr, ptr, ptr, ptr, ptr, ptr, %"class.std::locale" }
%"class.std::locale" = type { ptr }
%"class.std::basic_ios" = type { %"class.std::ios_base", ptr, i8, i8, ptr, ptr, ptr, ptr }
%"class.std::ios_base" = type { ptr, i64, i64, i32, i32, i32, ptr, %"struct.std::ios_base::_Words", [8 x %"struct.std::ios_base::_Words"], i32, ptr, %"class.std::locale" }
%"struct.std::ios_base::_Words" = type { ptr, i64 }
%"class.std::__cxx11::basic_stringstream" = type { %"class.std::basic_iostream.base", %"class.std::__cxx11::basic_stringbuf", %"class.std::basic_ios" }
%"class.std::basic_iostream.base" = type { %"class.std::basic_istream.base", %"class.std::basic_ostream.base" }
%"class.std::basic_istream.base" = type { ptr, i64 }
%"class.colvarmodule::quaternion" = type { double, double, double, double }

; Function Attrs: inlinehint mustprogress nounwind uwtable
define linkonce_odr noundef i32 @_ZStanSt12_Ios_IostateS_(i32 noundef %0, i32 noundef %1) #5 comdat {
  %3 = alloca i32, align 4
  %4 = alloca i32, align 4
  store i32 %0, ptr %3, align 4, !tbaa !85
  store i32 %1, ptr %4, align 4, !tbaa !85
  %5 = load i32, ptr %3, align 4, !tbaa !85
  %6 = load i32, ptr %4, align 4, !tbaa !85
  %7 = and i32 %5, %6
  ret i32 %7
}

; Function Attrs: inlinehint mustprogress nounwind uwtable
define linkonce_odr noundef i32 @_ZStorSt12_Ios_IostateS_(i32 noundef %0, i32 noundef %1) #5 comdat {
  %3 = alloca i32, align 4
  %4 = alloca i32, align 4
  store i32 %0, ptr %3, align 4, !tbaa !85
  store i32 %1, ptr %4, align 4, !tbaa !85
  %5 = load i32, ptr %3, align 4, !tbaa !85
  %6 = load i32, ptr %4, align 4, !tbaa !85
  %7 = or i32 %5, %6
  ret i32 %7
}

; Function Attrs: mustprogress nounwind uwtable
define available_externally noundef i32 @_ZNKSt9basic_iosIcSt11char_traitsIcEE7rdstateEv(ptr noundef nonnull align 8 dereferenceable(264) %0) #2 align 2 {
  %2 = alloca ptr, align 8
  store ptr %0, ptr %2, align 8, !tbaa !39
  %3 = load ptr, ptr %2, align 8
  %4 = getelementptr inbounds nuw %"class.std::ios_base", ptr %3, i32 0, i32 5
  %5 = load i32, ptr %4, align 8, !tbaa !86
  ret i32 %5
}

; Function Attrs: mustprogress uwtable
define available_externally noundef zeroext i1 @_ZNKSt9basic_iosIcSt11char_traitsIcEE4failEv(ptr noundef nonnull align 8 dereferenceable(264) %0) #0 align 2 {
  %2 = alloca ptr, align 8
  store ptr %0, ptr %2, align 8, !tbaa !39
  %3 = load ptr, ptr %2, align 8
  %4 = call noundef i32 @_ZNKSt9basic_iosIcSt11char_traitsIcEE7rdstateEv(ptr noundef nonnull align 8 dereferenceable(264) %3)
  %5 = call noundef i32 @_ZStorSt12_Ios_IostateS_(i32 noundef 1, i32 noundef 4)
  %6 = call noundef i32 @_ZStanSt12_Ios_IostateS_(i32 noundef %4, i32 noundef %5)
  %7 = icmp ne i32 %6, 0
  ret i1 %7
}

; Function Attrs: mustprogress uwtable
define available_externally noundef zeroext i1 @_ZNKSt9basic_iosIcSt11char_traitsIcEEntEv(ptr noundef nonnull align 8 dereferenceable(264) %0) #0 align 2 {
  %2 = alloca ptr, align 8
  store ptr %0, ptr %2, align 8, !tbaa !39
  %3 = load ptr, ptr %2, align 8
  %4 = call noundef zeroext i1 @_ZNKSt9basic_iosIcSt11char_traitsIcEE4failEv(ptr noundef nonnull align 8 dereferenceable(264) %3)
  ret i1 %4
}

; Function Attrs: mustprogress uwtable
define available_externally noundef nonnull align 8 dereferenceable(16) ptr @_ZNSirsERd(ptr noundef nonnull align 8 dereferenceable(16) %0, ptr noundef nonnull align 8 dereferenceable(8) %1) #0 align 2 {
  %3 = alloca ptr, align 8
  %4 = alloca ptr, align 8
  store ptr %0, ptr %3, align 8, !tbaa !102
  store ptr %1, ptr %4, align 8, !tbaa !104
  %5 = load ptr, ptr %3, align 8
  %6 = load ptr, ptr %4, align 8, !tbaa !104
  %7 = call noundef nonnull align 8 dereferenceable(16) ptr @_ZNSi10_M_extractIdEERSiRT_(ptr noundef nonnull align 8 dereferenceable(16) %5, ptr noundef nonnull align 8 dereferenceable(8) %6)
  ret ptr %7
}

; Function Attrs: inlinehint mustprogress nounwind uwtable
define linkonce_odr noundef i32 @_ZStorSt13_Ios_OpenmodeS_(i32 noundef %0, i32 noundef %1) #5 comdat {
  %3 = alloca i32, align 4
  %4 = alloca i32, align 4
  store i32 %0, ptr %3, align 4, !tbaa !58
  store i32 %1, ptr %4, align 4, !tbaa !58
  %5 = load i32, ptr %3, align 4, !tbaa !58
  %6 = load i32, ptr %4, align 4, !tbaa !58
  %7 = or i32 %5, %6
  ret i32 %7
}

; Function Attrs: mustprogress uwtable
define noundef i32 @_ZN12colvarmodule10quaternion18from_simple_stringERKNSt7__cxx1112basic_stringIcSt11char_traitsIcESaIcEEE(ptr noundef nonnull align 8 dereferenceable(32) %0, ptr noundef nonnull align 8 dereferenceable(32) %1) #0 align 2 personality ptr @__gxx_personality_v0 {
  %3 = alloca i32, align 4
  %4 = alloca ptr, align 8
  %5 = alloca ptr, align 8
  %6 = alloca %"class.std::__cxx11::basic_stringstream", align 8
  %7 = alloca ptr, align 8
  %8 = alloca i32, align 4
  %9 = alloca i32, align 4
  store ptr %0, ptr %4, align 8, !tbaa !120
  store ptr %1, ptr %5, align 8, !tbaa !72
  %10 = load ptr, ptr %4, align 8
  call void @llvm.lifetime.start.p0(i64 392, ptr %6) #16
  %11 = load ptr, ptr %5, align 8, !tbaa !72
  %12 = call noundef i32 @_ZStorSt13_Ios_OpenmodeS_(i32 noundef 16, i32 noundef 8)
  call void @_ZNSt7__cxx1118basic_stringstreamIcSt11char_traitsIcESaIcEEC1ERKNS_12basic_stringIcS2_S3_EESt13_Ios_Openmode(ptr noundef nonnull align 8 dereferenceable(128) %6, ptr noundef nonnull align 8 dereferenceable(32) %11, i32 noundef %12)
  %13 = getelementptr inbounds nuw %"class.colvarmodule::quaternion", ptr %10, i32 0, i32 0
  %14 = invoke noundef nonnull align 8 dereferenceable(16) ptr @_ZNSirsERd(ptr noundef nonnull align 8 dereferenceable(16) %6, ptr noundef nonnull align 8 dereferenceable(8) %13)
          to label %15 unwind label %53

15:                                               ; preds = %2
  %16 = load ptr, ptr %14, align 8, !tbaa !9
  %17 = getelementptr i8, ptr %16, i64 -24
  %18 = load i64, ptr %17, align 8
  %19 = getelementptr inbounds i8, ptr %14, i64 %18
  %20 = invoke noundef zeroext i1 @_ZNKSt9basic_iosIcSt11char_traitsIcEEntEv(ptr noundef nonnull align 8 dereferenceable(264) %19)
          to label %21 unwind label %53

21:                                               ; preds = %15
  br i1 %20, label %52, label %22

22:                                               ; preds = %21
  %23 = getelementptr inbounds nuw %"class.colvarmodule::quaternion", ptr %10, i32 0, i32 1
  %24 = invoke noundef nonnull align 8 dereferenceable(16) ptr @_ZNSirsERd(ptr noundef nonnull align 8 dereferenceable(16) %6, ptr noundef nonnull align 8 dereferenceable(8) %23)
          to label %25 unwind label %53

25:                                               ; preds = %22
  %26 = load ptr, ptr %24, align 8, !tbaa !9
  %27 = getelementptr i8, ptr %26, i64 -24
  %28 = load i64, ptr %27, align 8
  %29 = getelementptr inbounds i8, ptr %24, i64 %28
  %30 = invoke noundef zeroext i1 @_ZNKSt9basic_iosIcSt11char_traitsIcEEntEv(ptr noundef nonnull align 8 dereferenceable(264) %29)
          to label %31 unwind label %53

31:                                               ; preds = %25
  br i1 %30, label %52, label %32

32:                                               ; preds = %31
  %33 = getelementptr inbounds nuw %"class.colvarmodule::quaternion", ptr %10, i32 0, i32 2
  %34 = invoke noundef nonnull align 8 dereferenceable(16) ptr @_ZNSirsERd(ptr noundef nonnull align 8 dereferenceable(16) %6, ptr noundef nonnull align 8 dereferenceable(8) %33)
          to label %35 unwind label %53

35:                                               ; preds = %32
  %36 = load ptr, ptr %34, align 8, !tbaa !9
  %37 = getelementptr i8, ptr %36, i64 -24
  %38 = load i64, ptr %37, align 8
  %39 = getelementptr inbounds i8, ptr %34, i64 %38
  %40 = invoke noundef zeroext i1 @_ZNKSt9basic_iosIcSt11char_traitsIcEEntEv(ptr noundef nonnull align 8 dereferenceable(264) %39)
          to label %41 unwind label %53

41:                                               ; preds = %35
  br i1 %40, label %52, label %42

42:                                               ; preds = %41
  %43 = getelementptr inbounds nuw %"class.colvarmodule::quaternion", ptr %10, i32 0, i32 3
  %44 = invoke noundef nonnull align 8 dereferenceable(16) ptr @_ZNSirsERd(ptr noundef nonnull align 8 dereferenceable(16) %6, ptr noundef nonnull align 8 dereferenceable(8) %43)
          to label %45 unwind label %53

45:                                               ; preds = %42
  %46 = load ptr, ptr %44, align 8, !tbaa !9
  %47 = getelementptr i8, ptr %46, i64 -24
  %48 = load i64, ptr %47, align 8
  %49 = getelementptr inbounds i8, ptr %44, i64 %48
  %50 = invoke noundef zeroext i1 @_ZNKSt9basic_iosIcSt11char_traitsIcEEntEv(ptr noundef nonnull align 8 dereferenceable(264) %49)
          to label %51 unwind label %53

51:                                               ; preds = %45
  br i1 %50, label %52, label %57

52:                                               ; preds = %51, %41, %31, %21
  store i32 1, ptr %3, align 4
  store i32 1, ptr %9, align 4
  br label %58

53:                                               ; preds = %45, %42, %35, %32, %25, %22, %15, %2
  %54 = landingpad { ptr, i32 }
          cleanup
  %55 = extractvalue { ptr, i32 } %54, 0
  store ptr %55, ptr %7, align 8
  %56 = extractvalue { ptr, i32 } %54, 1
  store i32 %56, ptr %8, align 4
  call void @_ZNSt7__cxx1118basic_stringstreamIcSt11char_traitsIcESaIcEED1Ev(ptr noundef nonnull align 8 dereferenceable(128) %6) #16
  call void @llvm.lifetime.end.p0(i64 392, ptr %6) #16
  br label %60

57:                                               ; preds = %51
  store i32 0, ptr %3, align 4
  store i32 1, ptr %9, align 4
  br label %58

58:                                               ; preds = %57, %52
  call void @_ZNSt7__cxx1118basic_stringstreamIcSt11char_traitsIcESaIcEED1Ev(ptr noundef nonnull align 8 dereferenceable(128) %6) #16
  call void @llvm.lifetime.end.p0(i64 392, ptr %6) #16
  %59 = load i32, ptr %3, align 4
  ret i32 %59

60:                                               ; preds = %53
  %61 = load ptr, ptr %7, align 8
  %62 = load i32, ptr %8, align 4
  %63 = insertvalue { ptr, i32 } poison, ptr %61, 0
  %64 = insertvalue { ptr, i32 } %63, i32 %62, 1
  resume { ptr, i32 } %64
}